target datalayout = "e-m:e-p270:32:32-p271:32:32-p272:64:64-i64:64-i128:128-f80:128-n8:16:32:64-S128"
target triple = "x86_64-pc-linux-gnu"

%struct.Ast_ = type { %union.SourceSpan, i32, i8, %union.anon.58 }
%union.SourceSpan = type { i64 }
%union.anon.58 = type { %struct.AstDocDirective_ }
%struct.AstDocDirective_ = type { i8, %union.anon.61 }
%union.anon.61 = type { %struct.anon.62 }
%struct.anon.62 = type { ptr, %union.SourceSpan, i8 }
%struct.Vmem = type { ptr, i64, i64 }
%struct.AstCompoundStmt = type { i32 }

@ast_arena = external global %struct.Vmem, align 8

; Function Attrs: nounwind uwtable
define internal ptr @astptr(i32 noundef %0) #0 {
  %2 = alloca i32, align 4
  store i32 %0, ptr %2, align 4
  %3 = load ptr, ptr @ast_arena, align 8
  %4 = load i32, ptr %2, align 4
  %5 = zext i32 %4 to i64
  %6 = getelementptr inbounds %struct.Ast_, ptr %3, i64 %5
  ret ptr %6
}

; Function Attrs: nounwind uwtable
define dso_local zeroext i1 @ast_is_not_empty(ptr noundef %0) #0 {
  %2 = alloca i1, align 1
  %3 = alloca ptr, align 8
  %4 = alloca i32, align 4
  %5 = alloca ptr, align 8
  store ptr %0, ptr %3, align 8
  %6 = load ptr, ptr %3, align 8
  %7 = icmp ne ptr %6, null
  br i1 %7, label %9, label %8

8:                                                ; preds = %1
  store i1 false, ptr %2, align 1
  br label %35

9:                                                ; preds = %1
  %10 = load ptr, ptr %3, align 8
  %11 = getelementptr inbounds %struct.Ast_, ptr %10, i32 0, i32 2
  %12 = load i8, ptr %11, align 4
  %13 = zext i8 %12 to i32
  %14 = icmp ne i32 %13, 6
  br i1 %14, label %15, label %16

15:                                               ; preds = %9
  store i1 true, ptr %2, align 1
  br label %35

16:                                               ; preds = %9
  %17 = load ptr, ptr %3, align 8
  %18 = getelementptr inbounds %struct.Ast_, ptr %17, i32 0, i32 3
  %19 = getelementptr inbounds %struct.AstCompoundStmt, ptr %18, i32 0, i32 0
  %20 = load i32, ptr %19, align 8
  store i32 %20, ptr %4, align 4
  %21 = load i32, ptr %4, align 4
  %22 = icmp ne i32 %21, 0
  br i1 %22, label %23, label %34

23:                                               ; preds = %16
  %24 = load i32, ptr %4, align 4
  %25 = call ptr @astptr(i32 noundef %24)
  store ptr %25, ptr %5, align 8
  %26 = load ptr, ptr %5, align 8
  %27 = getelementptr inbounds %struct.Ast_, ptr %26, i32 0, i32 1
  %28 = load i32, ptr %27, align 8
  %29 = icmp ne i32 %28, 0
  br i1 %29, label %30, label %31

30:                                               ; preds = %23
  store i1 true, ptr %2, align 1
  br label %35

31:                                               ; preds = %23
  %32 = load ptr, ptr %5, align 8
  %33 = call zeroext i1 @ast_is_not_empty(ptr noundef %32)
  store i1 %33, ptr %2, align 1
  br label %35

34:                                               ; preds = %16
  store i1 false, ptr %2, align 1
  br label %35

35:                                               ; preds = %34, %31, %30, %15, %8
  %36 = load i1, ptr %2, align 1
  ret i1 %36
}