; Function Attrs: nofree norecurse nosync nounwind memory(read, inaccessiblemem: none) uwtable
define dso_local noundef zeroext i1 @ast_is_not_empty(ptr noundef readonly %0) local_unnamed_addr #7 {
  %2 = load ptr, ptr @ast_arena, align 8
  br label %tailrecurse

tailrecurse:                                      ; preds = %9, %1
  %.tr = phi ptr [ %0, %1 ], [ %11, %9 ]
  %.not = icmp eq ptr %.tr, null
  br i1 %.not, label %14, label %3

3:                                                ; preds = %tailrecurse
  %4 = getelementptr inbounds i8, ptr %.tr, i64 12
  %5 = load i8, ptr %4, align 4
  %.not9 = icmp eq i8 %5, 6
  br i1 %.not9, label %6, label %14

6:                                                ; preds = %3
  %7 = getelementptr inbounds i8, ptr %.tr, i64 16
  %8 = load i32, ptr %7, align 8
  %.not10 = icmp eq i32 %8, 0
  br i1 %.not10, label %14, label %9

9:                                                ; preds = %6
  %10 = zext i32 %8 to i64
  %11 = getelementptr inbounds %struct.Ast_, ptr %2, i64 %10
  %12 = getelementptr inbounds i8, ptr %11, i64 8
  %13 = load i32, ptr %12, align 8
  %.not11 = icmp eq i32 %13, 0
  br i1 %.not11, label %tailrecurse, label %14

14:                                               ; preds = %6, %9, %3, %tailrecurse
  %.0 = phi i1 [ false, %tailrecurse ], [ true, %3 ], [ true, %9 ], [ false, %6 ]
  ret i1 %.0
}